; Function Attrs: mustprogress uwtable
define noundef zeroext i8 @_ZN6duckdb23ParquetGetPartitionInfoERNS_13ClientContextERNS_27TableFunctionPartitionInputE(ptr noundef nonnull align 8 dereferenceable(648) %0, ptr noundef nonnull align 8 dereferenceable(16) %1) #3 {
  tail call void @_ZNK6duckdb12optional_ptrIKNS_12FunctionDataELb1EE10CheckValidEv(ptr noundef nonnull align 8 dereferenceable(8) %1)
  %3 = load ptr, ptr %1, align 8, !tbaa !131
  %4 = getelementptr inbounds nuw i8, ptr %3, i64 48
  %5 = tail call noundef ptr @_ZNK6duckdb10unique_ptrINS_15MultiFileReaderESt14default_deleteIS1_ELb1EEptEv(ptr noundef nonnull align 8 dereferenceable(8) %4)
  %6 = getelementptr inbounds nuw i8, ptr %3, i64 496
  %7 = load ptr, ptr %5, align 8, !tbaa !133
  %8 = getelementptr inbounds nuw i8, ptr %7, i64 120
  %9 = load ptr, ptr %8, align 8
  %10 = tail call noundef zeroext i8 %9(ptr noundef nonnull align 8 dereferenceable(40) %5, ptr noundef nonnull align 8 dereferenceable(648) %0, ptr noundef nonnull align 8 dereferenceable(65) %6, ptr noundef nonnull align 8 dereferenceable(16) %1)
  ret i8 %10
}